; Function Attrs: mustprogress nounwind uwtable
define internal fastcc void @_ZNSt16allocator_traitsISaIN5Yosys7hashlib4dictINS0_5RTLIL8IdStringEN12_GLOBAL__N_119mutate_once_queue_tINSt7__cxx1112basic_stringIcSt11char_traitsIcESaIcEEENS5_14mutate_queue_tEEENS1_8hash_opsIS4_EEE7entry_tEEE7destroyISI_EEvRSJ_PT_(ptr noundef readonly captures(none) %0) unnamed_addr #6 align 2 personality ptr @__gxx_personality_v0 {
  %2 = getelementptr inbounds nuw i8, ptr %0, i64 8
  %3 = getelementptr inbounds nuw i8, ptr %0, i64 32
  tail call fastcc void @_ZNSt6vectorIN5Yosys7hashlib4dictINSt7__cxx1112basic_stringIcSt11char_traitsIcESaIcEEEN12_GLOBAL__N_114mutate_queue_tENS1_8hash_opsIS8_EEE7entry_tESaISE_EED2Ev(ptr noundef nonnull readonly align 8 dereferenceable(24) %3) #30
  %4 = load ptr, ptr %2, align 8, !tbaa !62
  %.not.i.i.i.i.i.i.i.i = icmp eq ptr %4, null
  br i1 %.not.i.i.i.i.i.i.i.i, label %_ZN12_GLOBAL__N_119mutate_once_queue_tINSt7__cxx1112basic_stringIcSt11char_traitsIcESaIcEEENS_14mutate_queue_tEED2Ev.exit.i.i.i, label %5

5:                                                ; preds = %1
  %6 = getelementptr inbounds nuw i8, ptr %0, i64 24
  %7 = load ptr, ptr %6, align 8, !tbaa !195
  %8 = ptrtoint ptr %7 to i64
  %9 = ptrtoint ptr %4 to i64
  %10 = sub i64 %8, %9
  tail call void @_ZdlPvm(ptr noundef nonnull %4, i64 noundef %10) #31
  br label %_ZN12_GLOBAL__N_119mutate_once_queue_tINSt7__cxx1112basic_stringIcSt11char_traitsIcESaIcEEENS_14mutate_queue_tEED2Ev.exit.i.i.i

_ZN12_GLOBAL__N_119mutate_once_queue_tINSt7__cxx1112basic_stringIcSt11char_traitsIcESaIcEEENS_14mutate_queue_tEED2Ev.exit.i.i.i: ; preds = %5, %1
  %11 = load i32, ptr %0, align 4, !tbaa !36
  %12 = load i8, ptr @_ZN5Yosys5RTLIL8IdString17destruct_guard_okE, align 1, !tbaa !59, !range !60, !noundef !61
  %13 = trunc nuw i8 %12 to i1
  %14 = icmp ne i32 %11, 0
  %or.cond.i.i.i.i.i = and i1 %14, %13
  br i1 %or.cond.i.i.i.i.i, label %15, label %_ZNSt15__new_allocatorIN5Yosys7hashlib4dictINS0_5RTLIL8IdStringEN12_GLOBAL__N_119mutate_once_queue_tINSt7__cxx1112basic_stringIcSt11char_traitsIcESaIcEEENS5_14mutate_queue_tEEENS1_8hash_opsIS4_EEE7entry_tEE7destroyISI_EEvPT_.exit

15:                                               ; preds = %_ZN12_GLOBAL__N_119mutate_once_queue_tINSt7__cxx1112basic_stringIcSt11char_traitsIcESaIcEEENS_14mutate_queue_tEED2Ev.exit.i.i.i
  %16 = sext i32 %11 to i64
  %17 = load ptr, ptr @_ZN5Yosys5RTLIL8IdString24global_refcount_storage_E, align 8, !tbaa !62
  %18 = getelementptr inbounds nuw i32, ptr %17, i64 %16
  %19 = load i32, ptr %18, align 4, !tbaa !63
  %20 = add nsw i32 %19, -1
  store i32 %20, ptr %18, align 4, !tbaa !63
  %21 = icmp sgt i32 %19, 1
  br i1 %21, label %_ZNSt15__new_allocatorIN5Yosys7hashlib4dictINS0_5RTLIL8IdStringEN12_GLOBAL__N_119mutate_once_queue_tINSt7__cxx1112basic_stringIcSt11char_traitsIcESaIcEEENS5_14mutate_queue_tEEENS1_8hash_opsIS4_EEE7entry_tEE7destroyISI_EEvPT_.exit, label %22

22:                                               ; preds = %15
  invoke void @_ZN5Yosys5RTLIL8IdString14free_referenceEi(i32 noundef %11)
          to label %_ZNSt15__new_allocatorIN5Yosys7hashlib4dictINS0_5RTLIL8IdStringEN12_GLOBAL__N_119mutate_once_queue_tINSt7__cxx1112basic_stringIcSt11char_traitsIcESaIcEEENS5_14mutate_queue_tEEENS1_8hash_opsIS4_EEE7entry_tEE7destroyISI_EEvPT_.exit unwind label %23

23:                                               ; preds = %22
  %24 = landingpad { ptr, i32 }
          catch ptr null
  %25 = extractvalue { ptr, i32 } %24, 0
  tail call void @__clang_call_terminate(ptr %25) #32
  unreachable

_ZNSt15__new_allocatorIN5Yosys7hashlib4dictINS0_5RTLIL8IdStringEN12_GLOBAL__N_119mutate_once_queue_tINSt7__cxx1112basic_stringIcSt11char_traitsIcESaIcEEENS5_14mutate_queue_tEEENS1_8hash_opsIS4_EEE7entry_tEE7destroyISI_EEvPT_.exit: ; preds = %_ZN12_GLOBAL__N_119mutate_once_queue_tINSt7__cxx1112basic_stringIcSt11char_traitsIcESaIcEEENS_14mutate_queue_tEED2Ev.exit.i.i.i, %15, %22
  ret void
}